target datalayout = "e-m:e-p270:32:32-p271:32:32-p272:64:64-i64:64-i128:128-f80:128-n8:16:32:64-S128"
target triple = "x86_64-pc-linux-gnu"

%struct.RTMPPacket = type { i32, i32, i32, i32, i32, ptr, i32, i32, i32 }
%struct.GetByteContext = type { ptr, ptr, ptr }

@.str.84 = private unnamed_addr constant [30 x i8] c"Assertion %s failed at %s:%d\0A\00", align 1
@.str.85 = private unnamed_addr constant [14 x i8] c"buf_size >= 0\00", align 1
@.str.86 = private unnamed_addr constant [26 x i8] c"./libavcodec/bytestream.h\00", align 1
@.str.95 = private unnamed_addr constant [8 x i8] c"_result\00", align 1

; Function Attrs: alwaysinline nounwind uwtable
define internal void @bytestream2_init(ptr noundef %0, ptr noundef %1, i32 noundef %2) #8 {
  %4 = alloca ptr, align 8
  %5 = alloca ptr, align 8
  %6 = alloca i32, align 4
  store ptr %0, ptr %4, align 8, !tbaa !126
  store ptr %1, ptr %5, align 8, !tbaa !9
  store i32 %2, ptr %6, align 4, !tbaa !11
  br label %7

7:                                                ; preds = %3
  %8 = load i32, ptr %6, align 4, !tbaa !11
  %9 = icmp sge i32 %8, 0
  br i1 %9, label %11, label %10

10:                                               ; preds = %7
  call void (ptr, i32, ptr, ...) @av_log(ptr noundef null, i32 noundef 0, ptr noundef @.str.84, ptr noundef @.str.85, ptr noundef @.str.86, i32 noundef 141)
  call void @abort() #15
  unreachable

11:                                               ; preds = %7
  br label %12

12:                                               ; preds = %11
  %13 = load ptr, ptr %5, align 8, !tbaa !9
  %14 = load ptr, ptr %4, align 8, !tbaa !126
  %15 = getelementptr inbounds nuw %struct.GetByteContext, ptr %14, i32 0, i32 0
  store ptr %13, ptr %15, align 8, !tbaa !99
  %16 = load ptr, ptr %5, align 8, !tbaa !9
  %17 = load ptr, ptr %4, align 8, !tbaa !126
  %18 = getelementptr inbounds nuw %struct.GetByteContext, ptr %17, i32 0, i32 2
  store ptr %16, ptr %18, align 8, !tbaa !128
  %19 = load ptr, ptr %5, align 8, !tbaa !9
  %20 = load i32, ptr %6, align 4, !tbaa !11
  %21 = sext i32 %20 to i64
  %22 = getelementptr inbounds i8, ptr %19, i64 %21
  %23 = load ptr, ptr %4, align 8, !tbaa !126
  %24 = getelementptr inbounds nuw %struct.GetByteContext, ptr %23, i32 0, i32 1
  store ptr %22, ptr %24, align 8, !tbaa !129
  ret void
}

; Function Attrs: nounwind uwtable
define internal i32 @read_number_result(ptr noundef %0, ptr noundef %1) #0 {
  %3 = alloca i32, align 4
  %4 = alloca ptr, align 8
  %5 = alloca ptr, align 8
  %6 = alloca [8 x i8], align 1
  %7 = alloca i32, align 4
  %8 = alloca double, align 8
  %9 = alloca %struct.GetByteContext, align 8
  %10 = alloca i32, align 4
  store ptr %0, ptr %4, align 8, !tbaa !57
  store ptr %1, ptr %5, align 8, !tbaa !146
  call void @llvm.lifetime.start.p0(i64 8, ptr %6) #12
  call void @llvm.lifetime.start.p0(i64 4, ptr %7) #12
  call void @llvm.lifetime.start.p0(i64 8, ptr %8) #12
  call void @llvm.lifetime.start.p0(i64 24, ptr %9) #12
  %11 = load ptr, ptr %4, align 8, !tbaa !57
  %12 = getelementptr inbounds nuw %struct.RTMPPacket, ptr %11, i32 0, i32 5
  %13 = load ptr, ptr %12, align 8, !tbaa !90
  %14 = load ptr, ptr %4, align 8, !tbaa !57
  %15 = getelementptr inbounds nuw %struct.RTMPPacket, ptr %14, i32 0, i32 6
  %16 = load i32, ptr %15, align 8, !tbaa !97
  call void @bytestream2_init(ptr noundef %9, ptr noundef %13, i32 noundef %16)
  %17 = getelementptr inbounds [8 x i8], ptr %6, i64 0, i64 0
  %18 = call i32 @ff_amf_read_string(ptr noundef %9, ptr noundef %17, i32 noundef 8, ptr noundef %7)
  %19 = icmp ne i32 %18, 0
  br i1 %19, label %20, label %21

20:                                               ; preds = %2
  store i32 -1094995529, ptr %3, align 4
  store i32 1, ptr %10, align 4
  br label %42

21:                                               ; preds = %2
  %22 = getelementptr inbounds [8 x i8], ptr %6, i64 0, i64 0
  %23 = call i32 @strcmp(ptr noundef %22, ptr noundef @.str.95) #13
  %24 = icmp ne i32 %23, 0
  br i1 %24, label %25, label %26

25:                                               ; preds = %21
  store i32 -1094995529, ptr %3, align 4
  store i32 1, ptr %10, align 4
  br label %42

26:                                               ; preds = %21
  %27 = call i32 @ff_amf_read_number(ptr noundef %9, ptr noundef %8)
  %28 = icmp ne i32 %27, 0
  br i1 %28, label %29, label %30

29:                                               ; preds = %26
  store i32 -1094995529, ptr %3, align 4
  store i32 1, ptr %10, align 4
  br label %42

30:                                               ; preds = %26
  %31 = call i32 @ff_amf_read_null(ptr noundef %9)
  %32 = icmp ne i32 %31, 0
  br i1 %32, label %33, label %34

33:                                               ; preds = %30
  store i32 -1094995529, ptr %3, align 4
  store i32 1, ptr %10, align 4
  br label %42

34:                                               ; preds = %30
  %35 = call i32 @ff_amf_read_number(ptr noundef %9, ptr noundef %8)
  %36 = icmp ne i32 %35, 0
  br i1 %36, label %37, label %38

37:                                               ; preds = %34
  store i32 -1094995529, ptr %3, align 4
  store i32 1, ptr %10, align 4
  br label %42

38:                                               ; preds = %34
  %39 = load double, ptr %8, align 8, !tbaa !101
  %40 = load ptr, ptr %5, align 8, !tbaa !146
  store double %39, ptr %40, align 8, !tbaa !101
  br label %41

41:                                               ; preds = %38
  store i32 0, ptr %3, align 4
  store i32 1, ptr %10, align 4
  br label %42

42:                                               ; preds = %41, %37, %33, %29, %25, %20
  call void @llvm.lifetime.end.p0(i64 24, ptr %9) #12
  call void @llvm.lifetime.end.p0(i64 8, ptr %8) #12
  call void @llvm.lifetime.end.p0(i64 4, ptr %7) #12
  call void @llvm.lifetime.end.p0(i64 8, ptr %6) #12
  %43 = load i32, ptr %3, align 4
  ret i32 %43
}