; Function Attrs: nounwind uwtable
define internal fastcc range(i32 -1094995529, 1) i32 @read_number_result(ptr %.24.val, i32 %.32.val, ptr noundef writeonly captures(none) %0) unnamed_addr #0 {
  %2 = alloca [8 x i8], align 1
  %3 = alloca i32, align 4
  %4 = alloca double, align 8
  %5 = alloca %struct.GetByteContext, align 8
  call void @llvm.lifetime.start.p0(i64 8, ptr nonnull %2) #11
  call void @llvm.lifetime.start.p0(i64 4, ptr nonnull %3) #11
  call void @llvm.lifetime.start.p0(i64 8, ptr nonnull %4) #11
  call void @llvm.lifetime.start.p0(i64 24, ptr nonnull %5) #11
  %6 = icmp sgt i32 %.32.val, -1
  br i1 %6, label %bytestream2_init.exit, label %7

7:                                                ; preds = %1
  tail call void (ptr, i32, ptr, ...) @av_log(ptr noundef null, i32 noundef 0, ptr noundef nonnull @.str.84, ptr noundef nonnull @.str.85, ptr noundef nonnull @.str.86, i32 noundef 141) #11
  tail call void @abort() #13
  unreachable

bytestream2_init.exit:                            ; preds = %1
  store ptr %.24.val, ptr %5, align 8, !tbaa !72
  %8 = getelementptr inbounds nuw i8, ptr %5, i64 16
  store ptr %.24.val, ptr %8, align 8, !tbaa !74
  %9 = zext nneg i32 %.32.val to i64
  %10 = getelementptr inbounds nuw i8, ptr %.24.val, i64 %9
  %11 = getelementptr inbounds nuw i8, ptr %5, i64 8
  store ptr %10, ptr %11, align 8, !tbaa !75
  %12 = call i32 @ff_amf_read_string(ptr noundef nonnull %5, ptr noundef nonnull %2, i32 noundef 8, ptr noundef nonnull %3) #11
  %.not = icmp eq i32 %12, 0
  br i1 %.not, label %13, label %22

13:                                               ; preds = %bytestream2_init.exit
  %bcmp = call i32 @bcmp(ptr noundef nonnull dereferenceable(8) %2, ptr noundef nonnull dereferenceable(8) @.str.95, i64 8)
  %.not3 = icmp eq i32 %bcmp, 0
  br i1 %.not3, label %14, label %22

14:                                               ; preds = %13
  %15 = call i32 @ff_amf_read_number(ptr noundef nonnull %5, ptr noundef nonnull %4) #11
  %.not4 = icmp eq i32 %15, 0
  br i1 %.not4, label %16, label %22

16:                                               ; preds = %14
  %17 = call i32 @ff_amf_read_null(ptr noundef nonnull %5) #11
  %.not5 = icmp eq i32 %17, 0
  br i1 %.not5, label %18, label %22

18:                                               ; preds = %16
  %19 = call i32 @ff_amf_read_number(ptr noundef nonnull %5, ptr noundef nonnull %4) #11
  %.not6 = icmp eq i32 %19, 0
  br i1 %.not6, label %20, label %22

20:                                               ; preds = %18
  %21 = load double, ptr %4, align 8, !tbaa !76
  store double %21, ptr %0, align 8, !tbaa !76
  br label %22

22:                                               ; preds = %18, %16, %14, %13, %bytestream2_init.exit, %20
  %.0 = phi i32 [ 0, %20 ], [ -1094995529, %bytestream2_init.exit ], [ -1094995529, %13 ], [ -1094995529, %14 ], [ -1094995529, %16 ], [ -1094995529, %18 ]
  call void @llvm.lifetime.end.p0(i64 24, ptr nonnull %5) #11
  call void @llvm.lifetime.end.p0(i64 8, ptr nonnull %4) #11
  call void @llvm.lifetime.end.p0(i64 4, ptr nonnull %3) #11
  call void @llvm.lifetime.end.p0(i64 8, ptr nonnull %2) #11
  ret i32 %.0
}